target datalayout = "e-m:e-p270:32:32-p271:32:32-p272:64:64-i64:64-i128:128-f80:128-n8:16:32:64-S128"
target triple = "x86_64-pc-linux-gnu"

%struct.str_buf = type { ptr, i64, i64, i8 }

; Function Attrs: nounwind
define internal void @str_buf_reserve(ptr noundef %0, i64 noundef %1) #0 {
  %3 = alloca ptr, align 8
  %4 = alloca i64, align 8
  %5 = alloca i64, align 8
  %6 = alloca i32, align 4
  %7 = alloca i64, align 8
  %8 = alloca i64, align 8
  %9 = alloca ptr, align 8
  store ptr %0, ptr %3, align 8, !tbaa !43
  store i64 %1, ptr %4, align 8, !tbaa !33
  %10 = load ptr, ptr %3, align 8, !tbaa !43
  %11 = getelementptr inbounds nuw %struct.str_buf, ptr %10, i32 0, i32 3
  %12 = load i8, ptr %11, align 8, !tbaa !42, !range !27, !noundef !28
  %13 = trunc i8 %12 to i1
  br i1 %13, label %14, label %15

14:                                               ; preds = %2
  br label %99

15:                                               ; preds = %2
  call void @llvm.lifetime.start.p0(i64 8, ptr %5) #8
  %16 = load ptr, ptr %3, align 8, !tbaa !43
  %17 = getelementptr inbounds nuw %struct.str_buf, ptr %16, i32 0, i32 2
  %18 = load i64, ptr %17, align 8, !tbaa !41
  %19 = load ptr, ptr %3, align 8, !tbaa !43
  %20 = getelementptr inbounds nuw %struct.str_buf, ptr %19, i32 0, i32 1
  %21 = load i64, ptr %20, align 8, !tbaa !40
  %22 = sub i64 %18, %21
  store i64 %22, ptr %5, align 8, !tbaa !33
  %23 = load i64, ptr %4, align 8, !tbaa !33
  %24 = load i64, ptr %5, align 8, !tbaa !33
  %25 = icmp ule i64 %23, %24
  br i1 %25, label %26, label %27

26:                                               ; preds = %15
  store i32 1, ptr %6, align 4
  br label %97

27:                                               ; preds = %15
  call void @llvm.lifetime.start.p0(i64 8, ptr %7) #8
  %28 = load ptr, ptr %3, align 8, !tbaa !43
  %29 = getelementptr inbounds nuw %struct.str_buf, ptr %28, i32 0, i32 2
  %30 = load i64, ptr %29, align 8, !tbaa !41
  %31 = load i64, ptr %4, align 8, !tbaa !33
  %32 = load i64, ptr %5, align 8, !tbaa !33
  %33 = sub i64 %31, %32
  %34 = add i64 %30, %33
  store i64 %34, ptr %7, align 8, !tbaa !33
  %35 = load i64, ptr %7, align 8, !tbaa !33
  %36 = load ptr, ptr %3, align 8, !tbaa !43
  %37 = getelementptr inbounds nuw %struct.str_buf, ptr %36, i32 0, i32 2
  %38 = load i64, ptr %37, align 8, !tbaa !41
  %39 = icmp ult i64 %35, %38
  br i1 %39, label %40, label %43

40:                                               ; preds = %27
  %41 = load ptr, ptr %3, align 8, !tbaa !43
  %42 = getelementptr inbounds nuw %struct.str_buf, ptr %41, i32 0, i32 3
  store i8 1, ptr %42, align 8, !tbaa !42
  store i32 1, ptr %6, align 4
  br label %96

43:                                               ; preds = %27
  call void @llvm.lifetime.start.p0(i64 8, ptr %8) #8
  %44 = load ptr, ptr %3, align 8, !tbaa !43
  %45 = getelementptr inbounds nuw %struct.str_buf, ptr %44, i32 0, i32 2
  %46 = load i64, ptr %45, align 8, !tbaa !41
  store i64 %46, ptr %8, align 8, !tbaa !33
  %47 = load i64, ptr %8, align 8, !tbaa !33
  %48 = icmp eq i64 %47, 0
  br i1 %48, label %49, label %50

49:                                               ; preds = %43
  store i64 4, ptr %8, align 8, !tbaa !33
  br label %50

50:                                               ; preds = %49, %43
  br label %51

51:                                               ; preds = %66, %50
  %52 = load i64, ptr %8, align 8, !tbaa !33
  %53 = load i64, ptr %7, align 8, !tbaa !33
  %54 = icmp ult i64 %52, %53
  br i1 %54, label %55, label %67

55:                                               ; preds = %51
  %56 = load i64, ptr %8, align 8, !tbaa !33
  %57 = mul i64 %56, 2
  store i64 %57, ptr %8, align 8, !tbaa !33
  %58 = load i64, ptr %8, align 8, !tbaa !33
  %59 = load ptr, ptr %3, align 8, !tbaa !43
  %60 = getelementptr inbounds nuw %struct.str_buf, ptr %59, i32 0, i32 2
  %61 = load i64, ptr %60, align 8, !tbaa !41
  %62 = icmp ult i64 %58, %61
  br i1 %62, label %63, label %66

63:                                               ; preds = %55
  %64 = load ptr, ptr %3, align 8, !tbaa !43
  %65 = getelementptr inbounds nuw %struct.str_buf, ptr %64, i32 0, i32 3
  store i8 1, ptr %65, align 8, !tbaa !42
  store i32 1, ptr %6, align 4
  br label %95

66:                                               ; preds = %55
  br label %51, !llvm.loop !87

67:                                               ; preds = %51
  call void @llvm.lifetime.start.p0(i64 8, ptr %9) #8
  %68 = load ptr, ptr %3, align 8, !tbaa !43
  %69 = getelementptr inbounds nuw %struct.str_buf, ptr %68, i32 0, i32 0
  %70 = load ptr, ptr %69, align 8, !tbaa !38
  %71 = load i64, ptr %8, align 8, !tbaa !33
  %72 = call ptr @realloc(ptr noundef %70, i64 noundef %71) #11
  store ptr %72, ptr %9, align 8, !tbaa !3
  %73 = load ptr, ptr %9, align 8, !tbaa !3
  %74 = icmp eq ptr %73, null
  br i1 %74, label %75, label %87

75:                                               ; preds = %67
  %76 = load ptr, ptr %3, align 8, !tbaa !43
  %77 = getelementptr inbounds nuw %struct.str_buf, ptr %76, i32 0, i32 0
  %78 = load ptr, ptr %77, align 8, !tbaa !38
  call void @free(ptr noundef %78) #8
  %79 = load ptr, ptr %3, align 8, !tbaa !43
  %80 = getelementptr inbounds nuw %struct.str_buf, ptr %79, i32 0, i32 0
  store ptr null, ptr %80, align 8, !tbaa !38
  %81 = load ptr, ptr %3, align 8, !tbaa !43
  %82 = getelementptr inbounds nuw %struct.str_buf, ptr %81, i32 0, i32 1
  store i64 0, ptr %82, align 8, !tbaa !40
  %83 = load ptr, ptr %3, align 8, !tbaa !43
  %84 = getelementptr inbounds nuw %struct.str_buf, ptr %83, i32 0, i32 2
  store i64 0, ptr %84, align 8, !tbaa !41
  %85 = load ptr, ptr %3, align 8, !tbaa !43
  %86 = getelementptr inbounds nuw %struct.str_buf, ptr %85, i32 0, i32 3
  store i8 1, ptr %86, align 8, !tbaa !42
  br label %94

87:                                               ; preds = %67
  %88 = load ptr, ptr %9, align 8, !tbaa !3
  %89 = load ptr, ptr %3, align 8, !tbaa !43
  %90 = getelementptr inbounds nuw %struct.str_buf, ptr %89, i32 0, i32 0
  store ptr %88, ptr %90, align 8, !tbaa !38
  %91 = load i64, ptr %8, align 8, !tbaa !33
  %92 = load ptr, ptr %3, align 8, !tbaa !43
  %93 = getelementptr inbounds nuw %struct.str_buf, ptr %92, i32 0, i32 2
  store i64 %91, ptr %93, align 8, !tbaa !41
  br label %94

94:                                               ; preds = %87, %75
  call void @llvm.lifetime.end.p0(i64 8, ptr %9) #8
  store i32 0, ptr %6, align 4
  br label %95

95:                                               ; preds = %94, %63
  call void @llvm.lifetime.end.p0(i64 8, ptr %8) #8
  br label %96

96:                                               ; preds = %95, %40
  call void @llvm.lifetime.end.p0(i64 8, ptr %7) #8
  br label %97

97:                                               ; preds = %96, %26
  call void @llvm.lifetime.end.p0(i64 8, ptr %5) #8
  %98 = load i32, ptr %6, align 4
  switch i32 %98, label %100 [
    i32 0, label %99
    i32 1, label %99
  ]

99:                                               ; preds = %14, %97, %97
  ret void

100:                                              ; preds = %97
  unreachable
}

; Function Attrs: nounwind
define internal void @str_buf_append(ptr noundef %0, ptr noundef %1, i64 noundef %2) #0 {
  %4 = alloca ptr, align 8
  %5 = alloca ptr, align 8
  %6 = alloca i64, align 8
  store ptr %0, ptr %4, align 8, !tbaa !43
  store ptr %1, ptr %5, align 8, !tbaa !3
  store i64 %2, ptr %6, align 8, !tbaa !33
  %7 = load ptr, ptr %4, align 8, !tbaa !43
  %8 = load i64, ptr %6, align 8, !tbaa !33
  call void @str_buf_reserve(ptr noundef %7, i64 noundef %8)
  %9 = load ptr, ptr %4, align 8, !tbaa !43
  %10 = getelementptr inbounds nuw %struct.str_buf, ptr %9, i32 0, i32 3
  %11 = load i8, ptr %10, align 8, !tbaa !42, !range !27, !noundef !28
  %12 = trunc i8 %11 to i1
  br i1 %12, label %13, label %14

13:                                               ; preds = %3
  br label %29

14:                                               ; preds = %3
  %15 = load ptr, ptr %4, align 8, !tbaa !43
  %16 = getelementptr inbounds nuw %struct.str_buf, ptr %15, i32 0, i32 0
  %17 = load ptr, ptr %16, align 8, !tbaa !38
  %18 = load ptr, ptr %4, align 8, !tbaa !43
  %19 = getelementptr inbounds nuw %struct.str_buf, ptr %18, i32 0, i32 1
  %20 = load i64, ptr %19, align 8, !tbaa !40
  %21 = getelementptr inbounds nuw i8, ptr %17, i64 %20
  %22 = load ptr, ptr %5, align 8, !tbaa !3
  %23 = load i64, ptr %6, align 8, !tbaa !33
  call void @llvm.memcpy.p0.p0.i64(ptr align 1 %21, ptr align 1 %22, i64 %23, i1 false)
  %24 = load i64, ptr %6, align 8, !tbaa !33
  %25 = load ptr, ptr %4, align 8, !tbaa !43
  %26 = getelementptr inbounds nuw %struct.str_buf, ptr %25, i32 0, i32 1
  %27 = load i64, ptr %26, align 8, !tbaa !40
  %28 = add i64 %27, %24
  store i64 %28, ptr %26, align 8, !tbaa !40
  br label %29

29:                                               ; preds = %14, %13
  ret void
}

; Function Attrs: nounwind
define internal void @str_buf_demangle_callback(ptr noundef %0, i64 noundef %1, ptr noundef %2) #0 {
  %4 = alloca ptr, align 8
  %5 = alloca i64, align 8
  %6 = alloca ptr, align 8
  store ptr %0, ptr %4, align 8, !tbaa !3
  store i64 %1, ptr %5, align 8, !tbaa !33
  store ptr %2, ptr %6, align 8, !tbaa !10
  %7 = load ptr, ptr %6, align 8, !tbaa !10
  %8 = load ptr, ptr %4, align 8, !tbaa !3
  %9 = load i64, ptr %5, align 8, !tbaa !33
  call void @str_buf_append(ptr noundef %7, ptr noundef %8, i64 noundef %9)
  ret void
}