; Function Attrs: nounwind
define internal void @str_buf_demangle_callback(ptr noundef readonly captures(none) %0, i64 noundef %1, ptr noundef captures(none) %2) #0 {
  %4 = getelementptr inbounds nuw i8, ptr %2, i64 24
  %5 = load i8, ptr %4, align 8, !tbaa !37, !range !24, !noundef !25
  %6 = trunc nuw i8 %5 to i1
  br i1 %6, label %str_buf_append.exit, label %7

7:                                                ; preds = %3
  %8 = getelementptr inbounds nuw i8, ptr %2, i64 16
  %9 = load i64, ptr %8, align 8, !tbaa !38
  %10 = getelementptr inbounds nuw i8, ptr %2, i64 8
  %11 = load i64, ptr %10, align 8, !tbaa !39
  %12 = sub i64 %9, %11
  %.not.i.i = icmp ugt i64 %1, %12
  br i1 %.not.i.i, label %13, label %.str_buf_reserve.exit.thread10.i_crit_edge

.str_buf_reserve.exit.thread10.i_crit_edge:       ; preds = %7
  %.pre = load ptr, ptr %2, align 8, !tbaa !35
  br label %str_buf_reserve.exit.thread10.i

13:                                               ; preds = %7
  %14 = sub nuw i64 %1, %12
  %15 = add i64 %14, %9
  %16 = icmp ult i64 %15, %9
  br i1 %16, label %17, label %18

17:                                               ; preds = %13
  store i8 1, ptr %4, align 8, !tbaa !37
  br label %str_buf_append.exit

18:                                               ; preds = %13
  %19 = icmp eq i64 %9, 0
  %spec.store.select.i.i = select i1 %19, i64 4, i64 %9
  br label %20

20:                                               ; preds = %22, %18
  %.0.i.i = phi i64 [ %spec.store.select.i.i, %18 ], [ %23, %22 ]
  %21 = icmp ult i64 %.0.i.i, %15
  br i1 %21, label %22, label %26

22:                                               ; preds = %20
  %23 = shl i64 %.0.i.i, 1
  %24 = icmp ult i64 %23, %9
  br i1 %24, label %25, label %20, !llvm.loop !40

25:                                               ; preds = %22
  store i8 1, ptr %4, align 8, !tbaa !37
  br label %str_buf_append.exit

26:                                               ; preds = %20
  %27 = load ptr, ptr %2, align 8, !tbaa !35
  %28 = tail call ptr @realloc(ptr noundef %27, i64 noundef %.0.i.i) #13
  %29 = icmp eq ptr %28, null
  br i1 %29, label %30, label %str_buf_reserve.exit.i

30:                                               ; preds = %26
  %31 = load ptr, ptr %2, align 8, !tbaa !35
  tail call void @free(ptr noundef %31) #11
  tail call void @llvm.memset.p0.i64(ptr noundef nonnull align 8 dereferenceable(24) %2, i8 0, i64 24, i1 false)
  store i8 1, ptr %4, align 8, !tbaa !37
  br label %str_buf_append.exit

str_buf_reserve.exit.i:                           ; preds = %26
  store ptr %28, ptr %2, align 8, !tbaa !35
  store i64 %.0.i.i, ptr %8, align 8, !tbaa !38
  %.pre.i = load i8, ptr %4, align 8, !tbaa !37, !range !24
  %32 = trunc nuw i8 %.pre.i to i1
  br i1 %32, label %str_buf_append.exit, label %str_buf_reserve.exit.i.str_buf_reserve.exit.thread10.i_crit_edge

str_buf_reserve.exit.i.str_buf_reserve.exit.thread10.i_crit_edge: ; preds = %str_buf_reserve.exit.i
  %.pre4 = load i64, ptr %10, align 8, !tbaa !39
  br label %str_buf_reserve.exit.thread10.i

str_buf_reserve.exit.thread10.i:                  ; preds = %str_buf_reserve.exit.i.str_buf_reserve.exit.thread10.i_crit_edge, %.str_buf_reserve.exit.thread10.i_crit_edge
  %33 = phi i64 [ %11, %.str_buf_reserve.exit.thread10.i_crit_edge ], [ %.pre4, %str_buf_reserve.exit.i.str_buf_reserve.exit.thread10.i_crit_edge ]
  %34 = phi ptr [ %.pre, %.str_buf_reserve.exit.thread10.i_crit_edge ], [ %28, %str_buf_reserve.exit.i.str_buf_reserve.exit.thread10.i_crit_edge ]
  %35 = getelementptr inbounds nuw i8, ptr %34, i64 %33
  tail call void @llvm.memcpy.p0.p0.i64(ptr align 1 %35, ptr readonly align 1 %0, i64 %1, i1 false)
  %36 = load i64, ptr %10, align 8, !tbaa !39
  %37 = add i64 %36, %1
  store i64 %37, ptr %10, align 8, !tbaa !39
  br label %str_buf_append.exit

str_buf_append.exit:                              ; preds = %3, %17, %25, %30, %str_buf_reserve.exit.i, %str_buf_reserve.exit.thread10.i
  ret void
}